target datalayout = "e-m:e-p270:32:32-p271:32:32-p272:64:64-i64:64-i128:128-f80:128-n8:16:32:64-S128"
target triple = "x86_64-pc-linux-gnu"

%struct._zend_array = type { %struct._zend_refcounted_h, %union.anon.0, i32, %union.anon.1, i32, i32, i32, i32, i64, ptr }
%struct._zend_refcounted_h = type { i32, %union.anon }
%union.anon = type { i32 }
%union.anon.0 = type { i32 }
%union.anon.1 = type { ptr }
%struct._zval_struct = type { %union._zend_value, %union.anon.3, %union.anon.6 }
%union._zend_value = type { i64 }
%union.anon.3 = type { i32 }
%union.anon.6 = type { i32 }

@xport_hash = internal global %struct._zend_array zeroinitializer, align 8
@zend_string_init_interned = external global ptr, align 8

; Function Attrs: nounwind uwtable
define i32 @php_stream_xport_register(ptr noundef %0, ptr noundef %1) #0 {
  %3 = alloca ptr, align 8
  %4 = alloca i32, align 4
  %5 = alloca ptr, align 8
  %6 = alloca i8, align 1
  %7 = alloca ptr, align 8
  %8 = alloca ptr, align 8
  %9 = alloca ptr, align 8
  %10 = alloca %struct._zval_struct, align 8
  %11 = alloca ptr, align 8
  %12 = alloca ptr, align 8
  %13 = alloca ptr, align 8
  %14 = alloca ptr, align 8
  store ptr %0, ptr %12, align 8
  store ptr %1, ptr %13, align 8
  %15 = load ptr, ptr @zend_string_init_interned, align 8
  %16 = load ptr, ptr %12, align 8
  %17 = load ptr, ptr %12, align 8
  %18 = call i64 @strlen(ptr noundef %17) #10
  %19 = call ptr %15(ptr noundef %16, i64 noundef %18, i1 noundef zeroext true)
  store ptr %19, ptr %14, align 8
  %20 = load ptr, ptr %14, align 8
  %21 = load ptr, ptr %13, align 8
  store ptr @xport_hash, ptr %7, align 8
  store ptr %20, ptr %8, align 8
  store ptr %21, ptr %9, align 8
  %22 = load ptr, ptr %9, align 8
  store ptr %22, ptr %10, align 8
  %23 = getelementptr inbounds %struct._zval_struct, ptr %10, i32 0, i32 1
  store i32 13, ptr %23, align 8
  %24 = load ptr, ptr %7, align 8
  %25 = load ptr, ptr %8, align 8
  %26 = call ptr @zend_hash_update(ptr noundef %24, ptr noundef %25, ptr noundef %10) #11
  store ptr %26, ptr %11, align 8
  %27 = load ptr, ptr %11, align 8
  %28 = load ptr, ptr %27, align 8
  %29 = icmp ne ptr %28, null
  call void @llvm.assume(i1 %29)
  %30 = load ptr, ptr %14, align 8
  store ptr %30, ptr %5, align 8
  store i8 1, ptr %6, align 1
  %31 = load ptr, ptr %5, align 8
  %32 = getelementptr inbounds %struct._zend_refcounted_h, ptr %31, i32 0, i32 1
  %33 = load i32, ptr %32, align 4
  store i32 %33, ptr %4, align 4
  %34 = load i32, ptr %4, align 4
  %35 = and i32 %34, 1008
  %36 = and i32 %35, 64
  %37 = icmp ne i32 %36, 0
  br i1 %37, label %56, label %38

38:                                               ; preds = %2
  %39 = load ptr, ptr %5, align 8
  store ptr %39, ptr %3, align 8
  %40 = load ptr, ptr %3, align 8
  %41 = load i32, ptr %40, align 4
  %42 = icmp ugt i32 %41, 0
  call void @llvm.assume(i1 %42)
  %43 = load ptr, ptr %3, align 8
  %44 = load i32, ptr %43, align 4
  %45 = add i32 %44, -1
  store i32 %45, ptr %43, align 4
  %46 = icmp eq i32 %45, 0
  br i1 %46, label %47, label %55

47:                                               ; preds = %38
  %48 = load i8, ptr %6, align 1
  %49 = trunc i8 %48 to i1
  br i1 %49, label %50, label %52

50:                                               ; preds = %47
  %51 = load ptr, ptr %5, align 8
  call void @free(ptr noundef %51) #11
  br label %54

52:                                               ; preds = %47
  %53 = load ptr, ptr %5, align 8
  call void @_efree(ptr noundef %53) #11
  br label %54

54:                                               ; preds = %52, %50
  br label %55

55:                                               ; preds = %54, %38
  br label %56

56:                                               ; preds = %55, %2
  ret i32 0
}