; Function Attrs: nounwind uwtable
define noundef i32 @php_stream_xport_register(ptr noundef %0, ptr noundef %1) local_unnamed_addr #1 {
  %3 = alloca %struct._zval_struct, align 8
  %4 = load ptr, ptr @zend_string_init_interned, align 8
  %5 = tail call i64 @strlen(ptr noundef nonnull dereferenceable(1) %0) #13
  %6 = tail call ptr %4(ptr noundef %0, i64 noundef %5, i1 noundef zeroext true) #14
  store ptr %1, ptr %3, align 8
  %7 = getelementptr inbounds i8, ptr %3, i64 8
  store i32 13, ptr %7, align 8
  %8 = call ptr @zend_hash_update(ptr noundef nonnull @xport_hash, ptr noundef %6, ptr noundef nonnull %3) #14
  %9 = load ptr, ptr %8, align 8
  %10 = icmp ne ptr %9, null
  call void @llvm.assume(i1 %10)
  %11 = getelementptr inbounds i8, ptr %6, i64 4
  %12 = load i32, ptr %11, align 4
  %13 = and i32 %12, 64
  %.not = icmp eq i32 %13, 0
  br i1 %.not, label %14, label %20

14:                                               ; preds = %2
  %15 = load i32, ptr %6, align 4
  %16 = icmp ne i32 %15, 0
  call void @llvm.assume(i1 %16)
  %17 = add i32 %15, -1
  store i32 %17, ptr %6, align 4
  %18 = icmp eq i32 %17, 0
  br i1 %18, label %19, label %20

19:                                               ; preds = %14
  call void @free(ptr noundef nonnull %6) #14
  br label %20

20:                                               ; preds = %14, %19, %2
  ret i32 0
}